target datalayout = "e-m:e-p270:32:32-p271:32:32-p272:64:64-i64:64-i128:128-f80:128-n8:16:32:64-S128"
target triple = "x86_64-pc-linux-gnu"

%struct.Kit_DsdNtk_t_ = type { i16, i16, i16, i16, ptr, ptr, ptr }
%struct.Kit_DsdObj_t_ = type { i32, [0 x i16] }

; Function Attrs: inlinehint nounwind uwtable
define internal i32 @Kit_TruthWordNum(i32 noundef %0) #4 {
  %2 = alloca i32, align 4
  store i32 %0, ptr %2, align 4, !tbaa !3
  %3 = load i32, ptr %2, align 4, !tbaa !3
  %4 = icmp sle i32 %3, 5
  br i1 %4, label %5, label %6

5:                                                ; preds = %1
  br label %10

6:                                                ; preds = %1
  %7 = load i32, ptr %2, align 4, !tbaa !3
  %8 = sub nsw i32 %7, 5
  %9 = shl i32 1, %8
  br label %10

10:                                               ; preds = %6, %5
  %11 = phi i32 [ 1, %5 ], [ %9, %6 ]
  ret i32 %11
}

; Function Attrs: inlinehint nounwind uwtable
define internal i32 @Kit_WordFindFirstBit(i32 noundef %0) #4 {
  %2 = alloca i32, align 4
  %3 = alloca i32, align 4
  %4 = alloca i32, align 4
  %5 = alloca i32, align 4
  store i32 %0, ptr %3, align 4, !tbaa !3
  call void @llvm.lifetime.start.p0(i64 4, ptr %4) #9
  store i32 0, ptr %4, align 4, !tbaa !3
  br label %6

6:                                                ; preds = %18, %1
  %7 = load i32, ptr %4, align 4, !tbaa !3
  %8 = icmp slt i32 %7, 32
  br i1 %8, label %9, label %21

9:                                                ; preds = %6
  %10 = load i32, ptr %3, align 4, !tbaa !3
  %11 = load i32, ptr %4, align 4, !tbaa !3
  %12 = shl i32 1, %11
  %13 = and i32 %10, %12
  %14 = icmp ne i32 %13, 0
  br i1 %14, label %15, label %17

15:                                               ; preds = %9
  %16 = load i32, ptr %4, align 4, !tbaa !3
  store i32 %16, ptr %2, align 4
  store i32 1, ptr %5, align 4
  br label %22

17:                                               ; preds = %9
  br label %18

18:                                               ; preds = %17
  %19 = load i32, ptr %4, align 4, !tbaa !3
  %20 = add nsw i32 %19, 1
  store i32 %20, ptr %4, align 4, !tbaa !3
  br label %6, !llvm.loop !136

21:                                               ; preds = %6
  store i32 -1, ptr %2, align 4
  store i32 1, ptr %5, align 4
  br label %22

22:                                               ; preds = %21, %15
  call void @llvm.lifetime.end.p0(i64 4, ptr %4) #9
  %23 = load i32, ptr %2, align 4
  ret i32 %23
}

; Function Attrs: inlinehint nounwind uwtable
define internal i32 @Abc_LitNot(i32 noundef %0) #4 {
  %2 = alloca i32, align 4
  store i32 %0, ptr %2, align 4, !tbaa !3
  %3 = load i32, ptr %2, align 4, !tbaa !3
  %4 = xor i32 %3, 1
  ret i32 %4
}

; Function Attrs: inlinehint nounwind uwtable
define internal i32 @Kit_WordCountOnes(i32 noundef %0) #4 {
  %2 = alloca i32, align 4
  store i32 %0, ptr %2, align 4, !tbaa !3
  %3 = load i32, ptr %2, align 4, !tbaa !3
  %4 = and i32 %3, 1431655765
  %5 = load i32, ptr %2, align 4, !tbaa !3
  %6 = lshr i32 %5, 1
  %7 = and i32 %6, 1431655765
  %8 = add i32 %4, %7
  store i32 %8, ptr %2, align 4, !tbaa !3
  %9 = load i32, ptr %2, align 4, !tbaa !3
  %10 = and i32 %9, 858993459
  %11 = load i32, ptr %2, align 4, !tbaa !3
  %12 = lshr i32 %11, 2
  %13 = and i32 %12, 858993459
  %14 = add i32 %10, %13
  store i32 %14, ptr %2, align 4, !tbaa !3
  %15 = load i32, ptr %2, align 4, !tbaa !3
  %16 = and i32 %15, 252645135
  %17 = load i32, ptr %2, align 4, !tbaa !3
  %18 = lshr i32 %17, 4
  %19 = and i32 %18, 252645135
  %20 = add i32 %16, %19
  store i32 %20, ptr %2, align 4, !tbaa !3
  %21 = load i32, ptr %2, align 4, !tbaa !3
  %22 = and i32 %21, 16711935
  %23 = load i32, ptr %2, align 4, !tbaa !3
  %24 = lshr i32 %23, 8
  %25 = and i32 %24, 16711935
  %26 = add i32 %22, %25
  store i32 %26, ptr %2, align 4, !tbaa !3
  %27 = load i32, ptr %2, align 4, !tbaa !3
  %28 = and i32 %27, 65535
  %29 = load i32, ptr %2, align 4, !tbaa !3
  %30 = lshr i32 %29, 16
  %31 = add i32 %28, %30
  ret i32 %31
}

; Function Attrs: inlinehint nounwind uwtable
define internal void @Kit_TruthCopy(ptr noundef %0, ptr noundef %1, i32 noundef %2) #4 {
  %4 = alloca ptr, align 8
  %5 = alloca ptr, align 8
  %6 = alloca i32, align 4
  %7 = alloca i32, align 4
  store ptr %0, ptr %4, align 8, !tbaa !25
  store ptr %1, ptr %5, align 8, !tbaa !25
  store i32 %2, ptr %6, align 4, !tbaa !3
  call void @llvm.lifetime.start.p0(i64 4, ptr %7) #9
  %8 = load i32, ptr %6, align 4, !tbaa !3
  %9 = call i32 @Kit_TruthWordNum(i32 noundef %8)
  %10 = sub nsw i32 %9, 1
  store i32 %10, ptr %7, align 4, !tbaa !3
  br label %11

11:                                               ; preds = %24, %3
  %12 = load i32, ptr %7, align 4, !tbaa !3
  %13 = icmp sge i32 %12, 0
  br i1 %13, label %14, label %27

14:                                               ; preds = %11
  %15 = load ptr, ptr %5, align 8, !tbaa !25
  %16 = load i32, ptr %7, align 4, !tbaa !3
  %17 = sext i32 %16 to i64
  %18 = getelementptr inbounds i32, ptr %15, i64 %17
  %19 = load i32, ptr %18, align 4, !tbaa !3
  %20 = load ptr, ptr %4, align 8, !tbaa !25
  %21 = load i32, ptr %7, align 4, !tbaa !3
  %22 = sext i32 %21 to i64
  %23 = getelementptr inbounds i32, ptr %20, i64 %22
  store i32 %19, ptr %23, align 4, !tbaa !3
  br label %24

24:                                               ; preds = %14
  %25 = load i32, ptr %7, align 4, !tbaa !3
  %26 = add nsw i32 %25, -1
  store i32 %26, ptr %7, align 4, !tbaa !3
  br label %11, !llvm.loop !69

27:                                               ; preds = %11
  call void @llvm.lifetime.end.p0(i64 4, ptr %7) #9
  ret void
}

; Function Attrs: inlinehint nounwind uwtable
define internal ptr @Kit_DsdObjTruth(ptr noundef %0) #4 {
  %2 = alloca ptr, align 8
  store ptr %0, ptr %2, align 8, !tbaa !39
  %3 = load ptr, ptr %2, align 8, !tbaa !39
  %4 = load i32, ptr %3, align 4
  %5 = lshr i32 %4, 6
  %6 = and i32 %5, 7
  %7 = icmp eq i32 %6, 5
  br i1 %7, label %8, label %18

8:                                                ; preds = %1
  %9 = load ptr, ptr %2, align 8, !tbaa !39
  %10 = getelementptr inbounds nuw %struct.Kit_DsdObj_t_, ptr %9, i32 0, i32 1
  %11 = getelementptr inbounds [0 x i16], ptr %10, i64 0, i64 0
  %12 = load ptr, ptr %2, align 8, !tbaa !39
  %13 = load i32, ptr %12, align 4
  %14 = lshr i32 %13, 10
  %15 = and i32 %14, 255
  %16 = sext i32 %15 to i64
  %17 = getelementptr inbounds i32, ptr %11, i64 %16
  br label %19

18:                                               ; preds = %1
  br label %19

19:                                               ; preds = %18, %8
  %20 = phi ptr [ %17, %8 ], [ null, %18 ]
  ret ptr %20
}

; Function Attrs: inlinehint nounwind uwtable
define internal i32 @Abc_Var2Lit(i32 noundef %0, i32 noundef %1) #4 {
  %3 = alloca i32, align 4
  %4 = alloca i32, align 4
  store i32 %0, ptr %3, align 4, !tbaa !3
  store i32 %1, ptr %4, align 4, !tbaa !3
  %5 = load i32, ptr %3, align 4, !tbaa !3
  %6 = load i32, ptr %3, align 4, !tbaa !3
  %7 = add nsw i32 %5, %6
  %8 = load i32, ptr %4, align 4, !tbaa !3
  %9 = add nsw i32 %7, %8
  ret i32 %9
}

; Function Attrs: nounwind uwtable
define ptr @Kit_DsdNtkAlloc(i32 noundef %0) #0 {
  %2 = alloca i32, align 4
  %3 = alloca ptr, align 8
  store i32 %0, ptr %2, align 4, !tbaa !3
  call void @llvm.lifetime.start.p0(i64 8, ptr %3) #9
  %4 = call noalias ptr @malloc(i64 noundef 32) #10
  store ptr %4, ptr %3, align 8, !tbaa !37
  %5 = load ptr, ptr %3, align 8, !tbaa !37
  call void @llvm.memset.p0.i64(ptr align 8 %5, i8 0, i64 32, i1 false)
  %6 = load i32, ptr %2, align 4, !tbaa !3
  %7 = add nsw i32 %6, 1
  %8 = sext i32 %7 to i64
  %9 = mul i64 8, %8
  %10 = call noalias ptr @malloc(i64 noundef %9) #10
  %11 = load ptr, ptr %3, align 8, !tbaa !37
  %12 = getelementptr inbounds nuw %struct.Kit_DsdNtk_t_, ptr %11, i32 0, i32 6
  store ptr %10, ptr %12, align 8, !tbaa !47
  %13 = load i32, ptr %2, align 4, !tbaa !3
  %14 = trunc i32 %13 to i16
  %15 = load ptr, ptr %3, align 8, !tbaa !37
  %16 = getelementptr inbounds nuw %struct.Kit_DsdNtk_t_, ptr %15, i32 0, i32 0
  store i16 %14, ptr %16, align 8, !tbaa !41
  %17 = load i32, ptr %2, align 4, !tbaa !3
  %18 = add nsw i32 %17, 1
  %19 = trunc i32 %18 to i16
  %20 = load ptr, ptr %3, align 8, !tbaa !37
  %21 = getelementptr inbounds nuw %struct.Kit_DsdNtk_t_, ptr %20, i32 0, i32 1
  store i16 %19, ptr %21, align 2, !tbaa !46
  %22 = load i32, ptr %2, align 4, !tbaa !3
  %23 = call i32 @Kit_TruthWordNum(i32 noundef %22)
  %24 = mul nsw i32 6, %23
  %25 = sext i32 %24 to i64
  %26 = mul i64 4, %25
  %27 = call noalias ptr @malloc(i64 noundef %26) #10
  %28 = load ptr, ptr %3, align 8, !tbaa !37
  %29 = getelementptr inbounds nuw %struct.Kit_DsdNtk_t_, ptr %28, i32 0, i32 4
  store ptr %27, ptr %29, align 8, !tbaa !48
  %30 = load ptr, ptr %3, align 8, !tbaa !37
  call void @llvm.lifetime.end.p0(i64 8, ptr %3) #9
  ret ptr %30
}

; Function Attrs: nounwind uwtable
define ptr @Kit_DsdDecomposeInt(ptr noundef %0, i32 noundef %1, i32 noundef %2) #0 {
  %4 = alloca ptr, align 8
  %5 = alloca ptr, align 8
  %6 = alloca i32, align 4
  %7 = alloca i32, align 4
  %8 = alloca ptr, align 8
  %9 = alloca ptr, align 8
  %10 = alloca i32, align 4
  %11 = alloca i32, align 4
  %12 = alloca i32, align 4
  %13 = alloca i32, align 4
  store ptr %0, ptr %5, align 8, !tbaa !25
  store i32 %1, ptr %6, align 4, !tbaa !3
  store i32 %2, ptr %7, align 4, !tbaa !3
  call void @llvm.lifetime.start.p0(i64 8, ptr %8) #9
  call void @llvm.lifetime.start.p0(i64 8, ptr %9) #9
  call void @llvm.lifetime.start.p0(i64 4, ptr %10) #9
  call void @llvm.lifetime.start.p0(i64 4, ptr %11) #9
  call void @llvm.lifetime.start.p0(i64 4, ptr %12) #9
  %14 = load i32, ptr %6, align 4, !tbaa !3
  %15 = call ptr @Kit_DsdNtkAlloc(i32 noundef %14)
  store ptr %15, ptr %8, align 8, !tbaa !37
  %16 = load ptr, ptr %8, align 8, !tbaa !37
  %17 = getelementptr inbounds nuw %struct.Kit_DsdNtk_t_, ptr %16, i32 0, i32 0
  %18 = load i16, ptr %17, align 8, !tbaa !41
  %19 = zext i16 %18 to i32
  %20 = call i32 @Abc_Var2Lit(i32 noundef %19, i32 noundef 0)
  %21 = trunc i32 %20 to i16
  %22 = load ptr, ptr %8, align 8, !tbaa !37
  %23 = getelementptr inbounds nuw %struct.Kit_DsdNtk_t_, ptr %22, i32 0, i32 3
  store i16 %21, ptr %23, align 2, !tbaa !60
  %24 = load ptr, ptr %8, align 8, !tbaa !37
  %25 = load i32, ptr %6, align 4, !tbaa !3
  %26 = call ptr @Kit_DsdObjAlloc(ptr noundef %24, i32 noundef 5, i32 noundef %25)
  store ptr %26, ptr %9, align 8, !tbaa !39
  store i32 0, ptr %11, align 4, !tbaa !3
  br label %27

27:                                               ; preds = %40, %3
  %28 = load i32, ptr %11, align 4, !tbaa !3
  %29 = load i32, ptr %6, align 4, !tbaa !3
  %30 = icmp slt i32 %28, %29
  br i1 %30, label %31, label %43

31:                                               ; preds = %27
  %32 = load i32, ptr %11, align 4, !tbaa !3
  %33 = call i32 @Abc_Var2Lit(i32 noundef %32, i32 noundef 0)
  %34 = trunc i32 %33 to i16
  %35 = load ptr, ptr %9, align 8, !tbaa !39
  %36 = getelementptr inbounds nuw %struct.Kit_DsdObj_t_, ptr %35, i32 0, i32 1
  %37 = load i32, ptr %11, align 4, !tbaa !3
  %38 = sext i32 %37 to i64
  %39 = getelementptr inbounds [0 x i16], ptr %36, i64 0, i64 %38
  store i16 %34, ptr %39, align 2, !tbaa !58
  br label %40

40:                                               ; preds = %31
  %41 = load i32, ptr %11, align 4, !tbaa !3
  %42 = add nsw i32 %41, 1
  store i32 %42, ptr %11, align 4, !tbaa !3
  br label %27, !llvm.loop !138

43:                                               ; preds = %27
  %44 = load ptr, ptr %9, align 8, !tbaa !39
  %45 = call ptr @Kit_DsdObjTruth(ptr noundef %44)
  %46 = load ptr, ptr %5, align 8, !tbaa !25
  %47 = load i32, ptr %6, align 4, !tbaa !3
  call void @Kit_TruthCopy(ptr noundef %45, ptr noundef %46, i32 noundef %47)
  %48 = load ptr, ptr %5, align 8, !tbaa !25
  %49 = load i32, ptr %6, align 4, !tbaa !3
  %50 = call i32 @Kit_TruthSupport(ptr noundef %48, i32 noundef %49)
  store i32 %50, ptr %10, align 4, !tbaa !3
  %51 = load i32, ptr %10, align 4, !tbaa !3
  %52 = call i32 @Kit_WordCountOnes(i32 noundef %51)
  store i32 %52, ptr %12, align 4, !tbaa !3
  %53 = load i32, ptr %12, align 4, !tbaa !3
  %54 = icmp eq i32 %53, 0
  br i1 %54, label %55, label %79

55:                                               ; preds = %43
  %56 = load ptr, ptr %9, align 8, !tbaa !39
  %57 = load i32, ptr %56, align 4
  %58 = and i32 %57, -449
  %59 = or i32 %58, 64
  store i32 %59, ptr %56, align 4
  %60 = load ptr, ptr %9, align 8, !tbaa !39
  %61 = load i32, ptr %60, align 4
  %62 = and i32 %61, 67108863
  %63 = or i32 %62, 0
  store i32 %63, ptr %60, align 4
  %64 = load ptr, ptr %5, align 8, !tbaa !25
  %65 = getelementptr inbounds i32, ptr %64, i64 0
  %66 = load i32, ptr %65, align 4, !tbaa !3
  %67 = icmp eq i32 %66, 0
  br i1 %67, label %68, label %77

68:                                               ; preds = %55
  %69 = load ptr, ptr %8, align 8, !tbaa !37
  %70 = getelementptr inbounds nuw %struct.Kit_DsdNtk_t_, ptr %69, i32 0, i32 3
  %71 = load i16, ptr %70, align 2, !tbaa !60
  %72 = zext i16 %71 to i32
  %73 = call i32 @Abc_LitNot(i32 noundef %72)
  %74 = trunc i32 %73 to i16
  %75 = load ptr, ptr %8, align 8, !tbaa !37
  %76 = getelementptr inbounds nuw %struct.Kit_DsdNtk_t_, ptr %75, i32 0, i32 3
  store i16 %74, ptr %76, align 2, !tbaa !60
  br label %77

77:                                               ; preds = %68, %55
  %78 = load ptr, ptr %8, align 8, !tbaa !37
  store ptr %78, ptr %4, align 8
  store i32 1, ptr %13, align 4
  br label %115

79:                                               ; preds = %43
  %80 = load i32, ptr %12, align 4, !tbaa !3
  %81 = icmp eq i32 %80, 1
  br i1 %81, label %82, label %103

82:                                               ; preds = %79
  %83 = load ptr, ptr %9, align 8, !tbaa !39
  %84 = load i32, ptr %83, align 4
  %85 = and i32 %84, -449
  %86 = or i32 %85, 128
  store i32 %86, ptr %83, align 4
  %87 = load ptr, ptr %9, align 8, !tbaa !39
  %88 = load i32, ptr %87, align 4
  %89 = and i32 %88, 67108863
  %90 = or i32 %89, 67108864
  store i32 %90, ptr %87, align 4
  %91 = load i32, ptr %10, align 4, !tbaa !3
  %92 = call i32 @Kit_WordFindFirstBit(i32 noundef %91)
  %93 = load ptr, ptr %5, align 8, !tbaa !25
  %94 = getelementptr inbounds i32, ptr %93, i64 0
  %95 = load i32, ptr %94, align 4, !tbaa !3
  %96 = and i32 %95, 1
  %97 = call i32 @Abc_Var2Lit(i32 noundef %92, i32 noundef %96)
  %98 = trunc i32 %97 to i16
  %99 = load ptr, ptr %9, align 8, !tbaa !39
  %100 = getelementptr inbounds nuw %struct.Kit_DsdObj_t_, ptr %99, i32 0, i32 1
  %101 = getelementptr inbounds [0 x i16], ptr %100, i64 0, i64 0
  store i16 %98, ptr %101, align 4, !tbaa !58
  %102 = load ptr, ptr %8, align 8, !tbaa !37
  store ptr %102, ptr %4, align 8
  store i32 1, ptr %13, align 4
  br label %115

103:                                              ; preds = %79
  %104 = load ptr, ptr %8, align 8, !tbaa !37
  %105 = load ptr, ptr %8, align 8, !tbaa !37
  %106 = getelementptr inbounds nuw %struct.Kit_DsdNtk_t_, ptr %105, i32 0, i32 6
  %107 = load ptr, ptr %106, align 8, !tbaa !47
  %108 = getelementptr inbounds ptr, ptr %107, i64 0
  %109 = load ptr, ptr %108, align 8, !tbaa !39
  %110 = load i32, ptr %10, align 4, !tbaa !3
  %111 = load ptr, ptr %8, align 8, !tbaa !37
  %112 = getelementptr inbounds nuw %struct.Kit_DsdNtk_t_, ptr %111, i32 0, i32 3
  %113 = load i32, ptr %7, align 4, !tbaa !3
  call void @Kit_DsdDecompose_rec(ptr noundef %104, ptr noundef %109, i32 noundef %110, ptr noundef %112, i32 noundef %113)
  %114 = load ptr, ptr %8, align 8, !tbaa !37
  store ptr %114, ptr %4, align 8
  store i32 1, ptr %13, align 4
  br label %115

115:                                              ; preds = %103, %82, %77
  call void @llvm.lifetime.end.p0(i64 4, ptr %12) #9
  call void @llvm.lifetime.end.p0(i64 4, ptr %11) #9
  call void @llvm.lifetime.end.p0(i64 4, ptr %10) #9
  call void @llvm.lifetime.end.p0(i64 8, ptr %9) #9
  call void @llvm.lifetime.end.p0(i64 8, ptr %8) #9
  %116 = load ptr, ptr %4, align 8
  ret ptr %116
}