; Function Attrs: nounwind uwtable
define noundef ptr @Kit_DsdDecomposeInt(ptr noundef %0, i32 noundef %1, i32 noundef %2) local_unnamed_addr #0 {
  %calloc.i = tail call dereferenceable_or_null(32) ptr @calloc(i64 1, i64 32)
  %4 = add nsw i32 %1, 1
  %5 = sext i32 %4 to i64
  %6 = shl nsw i64 %5, 3
  %7 = tail call noalias ptr @malloc(i64 noundef %6) #26
  %8 = getelementptr inbounds nuw i8, ptr %calloc.i, i64 24
  store ptr %7, ptr %8, align 8, !tbaa !40
  %9 = trunc i32 %1 to i16
  store i16 %9, ptr %calloc.i, align 8, !tbaa !34
  %10 = trunc i32 %4 to i16
  %11 = getelementptr inbounds nuw i8, ptr %calloc.i, i64 2
  store i16 %10, ptr %11, align 2, !tbaa !39
  %12 = icmp slt i32 %1, 6
  %13 = add nsw i32 %1, -5
  %14 = shl i32 6, %13
  %15 = select i1 %12, i32 6, i32 %14
  %16 = sext i32 %15 to i64
  %17 = shl nsw i64 %16, 2
  %18 = tail call noalias ptr @malloc(i64 noundef %17) #26
  %19 = getelementptr inbounds nuw i8, ptr %calloc.i, i64 8
  store ptr %18, ptr %19, align 8, !tbaa !43
  %20 = shl i16 %9, 1
  %21 = getelementptr inbounds nuw i8, ptr %calloc.i, i64 6
  store i16 %20, ptr %21, align 2, !tbaa !51
  %22 = tail call ptr @Kit_DsdObjAlloc(ptr noundef nonnull %calloc.i, i32 noundef 5, i32 noundef %1)
  %23 = icmp sgt i32 %1, 0
  br i1 %23, label %.lr.ph, label %._crit_edge

.lr.ph:                                           ; preds = %3
  %24 = getelementptr inbounds nuw i8, ptr %22, i64 4
  %wide.trip.count = zext nneg i32 %1 to i64
  br label %25

25:                                               ; preds = %.lr.ph, %25
  %indvars.iv = phi i64 [ 0, %.lr.ph ], [ %indvars.iv.next, %25 ]
  %.037.tr = trunc i64 %indvars.iv to i16
  %26 = shl i16 %.037.tr, 1
  %27 = getelementptr inbounds nuw [0 x i16], ptr %24, i64 0, i64 %indvars.iv
  store i16 %26, ptr %27, align 2, !tbaa !49
  %indvars.iv.next = add nuw nsw i64 %indvars.iv, 1
  %exitcond.not = icmp eq i64 %indvars.iv.next, %wide.trip.count
  br i1 %exitcond.not, label %._crit_edge, label %25, !llvm.loop !127

._crit_edge:                                      ; preds = %25, %3
  %28 = load i32, ptr %22, align 4
  %29 = and i32 %28, 448
  %30 = icmp eq i32 %29, 320
  %31 = getelementptr inbounds nuw i8, ptr %22, i64 4
  %32 = lshr i32 %28, 10
  %33 = and i32 %32, 255
  %34 = zext nneg i32 %33 to i64
  %35 = getelementptr inbounds nuw i32, ptr %31, i64 %34
  %36 = select i1 %30, ptr %35, ptr null
  %37 = shl nuw i32 1, %13
  %spec.select.i = select i1 %12, i32 1, i32 %37
  %38 = icmp sgt i32 %spec.select.i, 0
  br i1 %38, label %select.unfold.preheader.i, label %Kit_TruthCopy.exit

select.unfold.preheader.i:                        ; preds = %._crit_edge
  %39 = zext nneg i32 %spec.select.i to i64
  br label %select.unfold.i

select.unfold.i:                                  ; preds = %select.unfold.i, %select.unfold.preheader.i
  %indvars.iv.i = phi i64 [ %39, %select.unfold.preheader.i ], [ %indvars.iv.next.i, %select.unfold.i ]
  %indvars.iv.next.i = add nsw i64 %indvars.iv.i, -1
  %40 = getelementptr inbounds nuw i32, ptr %0, i64 %indvars.iv.next.i
  %41 = load i32, ptr %40, align 4, !tbaa !20
  %42 = getelementptr inbounds nuw i32, ptr %36, i64 %indvars.iv.next.i
  store i32 %41, ptr %42, align 4, !tbaa !20
  %43 = icmp samesign ugt i64 %indvars.iv.i, 1
  br i1 %43, label %select.unfold.i, label %Kit_TruthCopy.exit, !llvm.loop !56

Kit_TruthCopy.exit:                               ; preds = %select.unfold.i, %._crit_edge
  %44 = tail call i32 @Kit_TruthSupport(ptr noundef %0, i32 noundef %1) #27
  %45 = and i32 %44, 1431655765
  %46 = lshr i32 %44, 1
  %47 = and i32 %46, 1431655765
  %48 = add nuw i32 %47, %45
  %49 = and i32 %48, 858993459
  %50 = lshr i32 %48, 2
  %51 = and i32 %50, 858993459
  %52 = add nuw nsw i32 %51, %49
  %53 = and i32 %52, 117901063
  %54 = lshr i32 %52, 4
  %55 = and i32 %54, 117901063
  %56 = add nuw nsw i32 %55, %53
  %57 = and i32 %56, 983055
  %58 = lshr i32 %56, 8
  %59 = and i32 %58, 983055
  %60 = add nuw nsw i32 %59, %57
  %61 = and i32 %60, 31
  %62 = lshr i32 %60, 16
  %63 = add nuw nsw i32 %61, %62
  switch i32 %63, label %87 [
    i32 0, label %64
    i32 1, label %73
  ]

64:                                               ; preds = %Kit_TruthCopy.exit
  %65 = load i32, ptr %22, align 4
  %66 = and i32 %65, 67108415
  %67 = or disjoint i32 %66, 64
  store i32 %67, ptr %22, align 4
  %68 = load i32, ptr %0, align 4, !tbaa !20
  %69 = icmp eq i32 %68, 0
  br i1 %69, label %70, label %90

70:                                               ; preds = %64
  %71 = load i16, ptr %21, align 2, !tbaa !51
  %72 = xor i16 %71, 1
  store i16 %72, ptr %21, align 2, !tbaa !51
  br label %90

73:                                               ; preds = %Kit_TruthCopy.exit
  %74 = load i32, ptr %22, align 4
  %75 = and i32 %74, 67108415
  %76 = or disjoint i32 %75, 67108992
  store i32 %76, ptr %22, align 4
  br label %77

77:                                               ; preds = %80, %73
  %.07.i = phi i32 [ 0, %73 ], [ %81, %80 ]
  %78 = shl nuw i32 1, %.07.i
  %79 = and i32 %78, %44
  %.not.i = icmp eq i32 %79, 0
  br i1 %.not.i, label %80, label %Kit_WordFindFirstBit.exit

80:                                               ; preds = %77
  %81 = add nuw nsw i32 %.07.i, 1
  %exitcond.not.i = icmp eq i32 %81, 32
  br i1 %exitcond.not.i, label %Kit_WordFindFirstBit.exit, label %77, !llvm.loop !123

Kit_WordFindFirstBit.exit:                        ; preds = %77, %80
  %.06.i = phi i32 [ %.07.i, %77 ], [ -1, %80 ]
  %82 = load i32, ptr %0, align 4, !tbaa !20
  %83 = and i32 %82, 1
  %84 = shl nsw i32 %.06.i, 1
  %85 = or disjoint i32 %83, %84
  %86 = trunc i32 %85 to i16
  store i16 %86, ptr %31, align 4, !tbaa !49
  br label %90

87:                                               ; preds = %Kit_TruthCopy.exit
  %88 = load ptr, ptr %8, align 8, !tbaa !40
  %89 = load ptr, ptr %88, align 8, !tbaa !41
  tail call void @Kit_DsdDecompose_rec(ptr noundef nonnull %calloc.i, ptr noundef %89, i32 noundef %44, ptr noundef nonnull %21, i32 noundef %2)
  br label %90

90:                                               ; preds = %64, %70, %87, %Kit_WordFindFirstBit.exit
  ret ptr %calloc.i
}